target datalayout = "e-m:e-p270:32:32-p271:32:32-p272:64:64-i64:64-i128:128-f80:128-n8:16:32:64-S128"
target triple = "x86_64-pc-linux-gnu"

%struct.wtap = type { ptr, ptr, i8, i32, i32, ptr, ptr, ptr, i32, ptr, ptr, ptr, ptr, ptr, ptr, ptr, ptr, ptr, ptr, i32, i32, ptr, ptr, ptr, ptr }
%struct.commview_ncfx_header = type { i32, i16, i8, i8, i8, i8, i8, i32, i8, i8, i8, i8, i8 }

@commview_ncfx_file_type_subtype = internal global i32 -1, align 4

; Function Attrs: null_pointer_is_valid sspstrong uwtable
define hidden i32 @commview_ncfx_open(ptr noundef %0, ptr noundef %1, ptr noundef %2) #0 {
  %4 = alloca i32, align 4
  %5 = alloca ptr, align 8
  %6 = alloca ptr, align 8
  %7 = alloca ptr, align 8
  %8 = alloca %struct.commview_ncfx_header, align 4
  %9 = alloca i32, align 4
  store ptr %0, ptr %5, align 8
  store ptr %1, ptr %6, align 8
  store ptr %2, ptr %7, align 8
  call void @llvm.lifetime.start.p0(i64 24, ptr %8) #8
  %10 = load ptr, ptr %5, align 8
  %11 = getelementptr inbounds nuw %struct.wtap, ptr %10, i32 0, i32 0
  %12 = load ptr, ptr %11, align 8
  %13 = load ptr, ptr %6, align 8
  %14 = load ptr, ptr %7, align 8
  %15 = call zeroext i1 @commview_ncfx_read_header(ptr noundef %8, ptr noundef %12, ptr noundef %13, ptr noundef %14)
  br i1 %15, label %35, label %16

16:                                               ; preds = %3
  %17 = load ptr, ptr %6, align 8
  %18 = load i32, ptr %17, align 4
  %19 = icmp eq i32 %18, 0
  br i1 %19, label %20, label %21

20:                                               ; preds = %16
  store i32 0, ptr %4, align 4
  store i32 1, ptr %9, align 4
  br label %136

21:                                               ; preds = %16
  %22 = load ptr, ptr %6, align 8
  %23 = load i32, ptr %22, align 4
  %24 = icmp eq i32 %23, -12
  br i1 %24, label %25, label %26

25:                                               ; preds = %21
  store i32 0, ptr %4, align 4
  store i32 1, ptr %9, align 4
  br label %136

26:                                               ; preds = %21
  %27 = load ptr, ptr %6, align 8
  %28 = load i32, ptr %27, align 4
  %29 = icmp eq i32 %28, -13
  br i1 %29, label %30, label %34

30:                                               ; preds = %26
  %31 = load ptr, ptr %7, align 8
  %32 = load ptr, ptr %31, align 8
  call void @wmem_free(ptr noundef null, ptr noundef %32)
  %33 = load ptr, ptr %7, align 8
  store ptr null, ptr %33, align 8
  store i32 0, ptr %4, align 4
  store i32 1, ptr %9, align 4
  br label %136

34:                                               ; preds = %26
  store i32 -1, ptr %4, align 4
  store i32 1, ptr %9, align 4
  br label %136

35:                                               ; preds = %3
  %36 = getelementptr inbounds nuw %struct.commview_ncfx_header, ptr %8, i32 0, i32 1
  %37 = load i16, ptr %36, align 4
  %38 = zext i16 %37 to i32
  %39 = icmp slt i32 %38, 2000
  br i1 %39, label %75, label %40

40:                                               ; preds = %35
  %41 = getelementptr inbounds nuw %struct.commview_ncfx_header, ptr %8, i32 0, i32 2
  %42 = load i8, ptr %41, align 2
  %43 = zext i8 %42 to i32
  %44 = icmp slt i32 %43, 1
  br i1 %44, label %75, label %45

45:                                               ; preds = %40
  %46 = getelementptr inbounds nuw %struct.commview_ncfx_header, ptr %8, i32 0, i32 2
  %47 = load i8, ptr %46, align 2
  %48 = zext i8 %47 to i32
  %49 = icmp sgt i32 %48, 12
  br i1 %49, label %75, label %50

50:                                               ; preds = %45
  %51 = getelementptr inbounds nuw %struct.commview_ncfx_header, ptr %8, i32 0, i32 3
  %52 = load i8, ptr %51, align 1
  %53 = zext i8 %52 to i32
  %54 = icmp slt i32 %53, 1
  br i1 %54, label %75, label %55

55:                                               ; preds = %50
  %56 = getelementptr inbounds nuw %struct.commview_ncfx_header, ptr %8, i32 0, i32 3
  %57 = load i8, ptr %56, align 1
  %58 = zext i8 %57 to i32
  %59 = icmp sgt i32 %58, 31
  br i1 %59, label %75, label %60

60:                                               ; preds = %55
  %61 = getelementptr inbounds nuw %struct.commview_ncfx_header, ptr %8, i32 0, i32 4
  %62 = load i8, ptr %61, align 4
  %63 = zext i8 %62 to i32
  %64 = icmp sgt i32 %63, 23
  br i1 %64, label %75, label %65

65:                                               ; preds = %60
  %66 = getelementptr inbounds nuw %struct.commview_ncfx_header, ptr %8, i32 0, i32 5
  %67 = load i8, ptr %66, align 1
  %68 = zext i8 %67 to i32
  %69 = icmp sgt i32 %68, 59
  br i1 %69, label %75, label %70

70:                                               ; preds = %65
  %71 = getelementptr inbounds nuw %struct.commview_ncfx_header, ptr %8, i32 0, i32 6
  %72 = load i8, ptr %71, align 2
  %73 = zext i8 %72 to i32
  %74 = icmp sgt i32 %73, 60
  br i1 %74, label %75, label %76

75:                                               ; preds = %70, %65, %60, %55, %50, %45, %40, %35
  store i32 0, ptr %4, align 4
  store i32 1, ptr %9, align 4
  br label %136

76:                                               ; preds = %70
  %77 = getelementptr inbounds nuw %struct.commview_ncfx_header, ptr %8, i32 0, i32 8
  %78 = load i8, ptr %77, align 4
  %79 = zext i8 %78 to i32
  switch i32 %79, label %115 [
    i32 0, label %80
    i32 1, label %97
  ]

80:                                               ; preds = %76
  %81 = getelementptr inbounds nuw %struct.commview_ncfx_header, ptr %8, i32 0, i32 10
  %82 = load i8, ptr %81, align 2
  %83 = zext i8 %82 to i32
  %84 = icmp ne i32 %83, 0
  br i1 %84, label %85, label %96

85:                                               ; preds = %80
  %86 = getelementptr inbounds nuw %struct.commview_ncfx_header, ptr %8, i32 0, i32 10
  %87 = load i8, ptr %86, align 2
  %88 = zext i8 %87 to i32
  %89 = icmp ne i32 %88, 1
  br i1 %89, label %90, label %96

90:                                               ; preds = %85
  %91 = getelementptr inbounds nuw %struct.commview_ncfx_header, ptr %8, i32 0, i32 10
  %92 = load i8, ptr %91, align 2
  %93 = zext i8 %92 to i32
  %94 = icmp ne i32 %93, 2
  br i1 %94, label %95, label %96

95:                                               ; preds = %90
  store i32 0, ptr %4, align 4
  store i32 1, ptr %9, align 4
  br label %136

96:                                               ; preds = %90, %85, %80
  br label %116

97:                                               ; preds = %76
  %98 = getelementptr inbounds nuw %struct.commview_ncfx_header, ptr %8, i32 0, i32 9
  %99 = load i8, ptr %98, align 1
  %100 = zext i8 %99 to i32
  %101 = icmp ne i32 %100, 0
  br i1 %101, label %102, label %108

102:                                              ; preds = %97
  %103 = getelementptr inbounds nuw %struct.commview_ncfx_header, ptr %8, i32 0, i32 9
  %104 = load i8, ptr %103, align 1
  %105 = zext i8 %104 to i32
  %106 = icmp ne i32 %105, 1
  br i1 %106, label %107, label %108

107:                                              ; preds = %102
  store i32 0, ptr %4, align 4
  store i32 1, ptr %9, align 4
  br label %136

108:                                              ; preds = %102, %97
  %109 = getelementptr inbounds nuw %struct.commview_ncfx_header, ptr %8, i32 0, i32 10
  %110 = load i8, ptr %109, align 2
  %111 = zext i8 %110 to i32
  %112 = icmp ne i32 %111, 0
  br i1 %112, label %113, label %114

113:                                              ; preds = %108
  store i32 0, ptr %4, align 4
  store i32 1, ptr %9, align 4
  br label %136

114:                                              ; preds = %108
  br label %116

115:                                              ; preds = %76
  store i32 0, ptr %4, align 4
  store i32 1, ptr %9, align 4
  br label %136

116:                                              ; preds = %114, %96
  %117 = load ptr, ptr %5, align 8
  %118 = getelementptr inbounds nuw %struct.wtap, ptr %117, i32 0, i32 0
  %119 = load ptr, ptr %118, align 8
  %120 = load ptr, ptr %6, align 8
  %121 = call i64 @file_seek(ptr noundef %119, i64 noundef 0, i32 noundef 0, ptr noundef %120)
  %122 = icmp eq i64 %121, -1
  br i1 %122, label %123, label %124

123:                                              ; preds = %116
  store i32 -1, ptr %4, align 4
  store i32 1, ptr %9, align 4
  br label %136

124:                                              ; preds = %116
  %125 = load ptr, ptr %5, align 8
  %126 = getelementptr inbounds nuw %struct.wtap, ptr %125, i32 0, i32 15
  store ptr @commview_ncfx_read, ptr %126, align 8
  %127 = load ptr, ptr %5, align 8
  %128 = getelementptr inbounds nuw %struct.wtap, ptr %127, i32 0, i32 16
  store ptr @commview_ncfx_seek_read, ptr %128, align 8
  %129 = load i32, ptr @commview_ncfx_file_type_subtype, align 4
  %130 = load ptr, ptr %5, align 8
  %131 = getelementptr inbounds nuw %struct.wtap, ptr %130, i32 0, i32 3
  store i32 %129, ptr %131, align 4
  %132 = load ptr, ptr %5, align 8
  %133 = getelementptr inbounds nuw %struct.wtap, ptr %132, i32 0, i32 19
  store i32 -1, ptr %133, align 8
  %134 = load ptr, ptr %5, align 8
  %135 = getelementptr inbounds nuw %struct.wtap, ptr %134, i32 0, i32 20
  store i32 6, ptr %135, align 4
  store i32 1, ptr %4, align 4
  store i32 1, ptr %9, align 4
  br label %136

136:                                              ; preds = %124, %123, %115, %113, %107, %95, %75, %34, %30, %25, %20
  call void @llvm.lifetime.end.p0(i64 24, ptr %8) #8
  %137 = load i32, ptr %4, align 4
  ret i32 %137
}