; Function Attrs: null_pointer_is_valid sspstrong uwtable
define hidden range(i32 -1, 2) i32 @commview_ncfx_open(ptr noundef captures(none) %0, ptr noundef %1, ptr noundef %2) local_unnamed_addr #0 {
  %4 = alloca %struct.commview_ncfx_header, align 4
  call void @llvm.lifetime.start.p0(i64 24, ptr nonnull %4) #8
  %5 = load ptr, ptr %0, align 8
  %6 = call fastcc zeroext i1 @commview_ncfx_read_header(ptr noundef nonnull %4, ptr noundef %5, ptr noundef %1, ptr noundef %2)
  br i1 %6, label %12, label %7

7:                                                ; preds = %3
  %8 = load i32, ptr %1, align 4
  switch i32 %8, label %11 [
    i32 0, label %55
    i32 -12, label %55
    i32 -13, label %9
  ]

9:                                                ; preds = %7
  %10 = load ptr, ptr %2, align 8
  call void @wmem_free(ptr noundef null, ptr noundef %10)
  store ptr null, ptr %2, align 8
  br label %55

11:                                               ; preds = %7
  br label %55

12:                                               ; preds = %3
  %13 = getelementptr inbounds nuw i8, ptr %4, i64 4
  %14 = load i16, ptr %13, align 4
  %15 = icmp ult i16 %14, 2000
  %16 = getelementptr inbounds nuw i8, ptr %4, i64 6
  %17 = load i8, ptr %16, align 2
  %18 = add i8 %17, -13
  %19 = icmp ult i8 %18, -12
  %or.cond7 = select i1 %15, i1 true, i1 %19
  %20 = getelementptr inbounds nuw i8, ptr %4, i64 7
  %21 = load i8, ptr %20, align 1
  %22 = add i8 %21, -32
  %23 = icmp ult i8 %22, -31
  %or.cond15 = select i1 %or.cond7, i1 true, i1 %23
  %24 = getelementptr inbounds nuw i8, ptr %4, i64 8
  %25 = load i8, ptr %24, align 4
  %26 = icmp ugt i8 %25, 23
  %or.cond19 = select i1 %or.cond15, i1 true, i1 %26
  %27 = getelementptr inbounds nuw i8, ptr %4, i64 9
  %28 = load i8, ptr %27, align 1
  %29 = icmp ugt i8 %28, 59
  %or.cond23 = select i1 %or.cond19, i1 true, i1 %29
  %30 = getelementptr inbounds nuw i8, ptr %4, i64 10
  %31 = load i8, ptr %30, align 2
  %32 = icmp ugt i8 %31, 60
  %or.cond27 = select i1 %or.cond23, i1 true, i1 %32
  br i1 %or.cond27, label %55, label %33

33:                                               ; preds = %12
  %34 = getelementptr inbounds nuw i8, ptr %4, i64 16
  %35 = load i8, ptr %34, align 4
  switch i8 %35, label %55 [
    i8 0, label %36
    i8 1, label %39
  ]

36:                                               ; preds = %33
  %37 = getelementptr inbounds nuw i8, ptr %4, i64 18
  %38 = load i8, ptr %37, align 2
  %or.cond35 = icmp ugt i8 %38, 2
  br i1 %or.cond35, label %55, label %44

39:                                               ; preds = %33
  %40 = getelementptr inbounds nuw i8, ptr %4, i64 17
  %41 = load i8, ptr %40, align 1
  %or.cond39 = icmp ult i8 %41, 2
  %42 = getelementptr inbounds nuw i8, ptr %4, i64 18
  %43 = load i8, ptr %42, align 2
  %.not = icmp eq i8 %43, 0
  %or.cond = select i1 %or.cond39, i1 %.not, i1 false
  br i1 %or.cond, label %44, label %55

44:                                               ; preds = %39, %36
  %45 = load ptr, ptr %0, align 8
  %46 = call i64 @file_seek(ptr noundef %45, i64 noundef 0, i32 noundef 0, ptr noundef %1)
  %47 = icmp eq i64 %46, -1
  br i1 %47, label %55, label %48

48:                                               ; preds = %44
  %49 = getelementptr inbounds nuw i8, ptr %0, i64 112
  store ptr @commview_ncfx_read, ptr %49, align 8
  %50 = getelementptr inbounds nuw i8, ptr %0, i64 120
  store ptr @commview_ncfx_seek_read, ptr %50, align 8
  %51 = load i32, ptr @commview_ncfx_file_type_subtype, align 4
  %52 = getelementptr inbounds nuw i8, ptr %0, i64 20
  store i32 %51, ptr %52, align 4
  %53 = getelementptr inbounds nuw i8, ptr %0, i64 144
  store i32 -1, ptr %53, align 8
  %54 = getelementptr inbounds nuw i8, ptr %0, i64 148
  store i32 6, ptr %54, align 4
  br label %55

55:                                               ; preds = %44, %33, %39, %36, %12, %7, %7, %48, %11, %9
  %.0 = phi i32 [ 1, %48 ], [ 0, %9 ], [ -1, %11 ], [ 0, %7 ], [ 0, %7 ], [ 0, %12 ], [ 0, %36 ], [ 0, %39 ], [ 0, %33 ], [ -1, %44 ]
  call void @llvm.lifetime.end.p0(i64 24, ptr nonnull %4) #8
  ret i32 %.0
}